(lp0
(dp1
S'name'
p2
S'Nick'
p3
sS'words'
p4
S'no datd'
p5
sa(dp6
S'name'
p7
S'Nick'
p8
sS'words'
p9
S'no datds'
p10
sa(dp11
S'name'
p12
S'Nick'
p13
sS'words'
p14
S'no datdsd'
p15
sa(dp16
S'name'
p17
S'Nick'
p18
sS'words'
p19
S'no datdsdf'
p20
sa(dp21
S'name'
p22
S'Nick'
p23
sS'words'
p24
S'no datdsdfs'
p25
sa(dp26
S'name'
p27
S'Nick'
p28
sS'words'
p29
S'no datdsdfsd'
p30
sa(dp31
S'name'
p32
S'Nick'
p33
sS'words'
p34
S'no datdsdfsdd'
p35
sa(dp36
S'name'
p37
S'Nick'
p38
sS'words'
p39
S'no datdsdfsdda'
p40
sa(dp41
S'name'
p42
S'Nick'
p43
sS'words'
p44
S'no datdsdfsddad'
p45
sa(dp46
S'name'
p47
S'Nick'
p48
sS'words'
p49
S'sno datdsdfsddad'
p50
sa(dp51
S'name'
p52
S'Nick'
p53
sS'words'
p54
S'sno datdsdfsddad'
p55
sa(dp56
S'name'
p57
S'Nick'
p58
sS'words'
p59
S'test'
p60
sa(dp61
S'name'
p62
S'Nick'
p63
sS'words'
p64
S'Robber'
p65
sa(dp66
S'name'
p67
S'Nick'
p68
sS'words'
p69
S'test'
p70
sa(dp71
S'name'
p72
S'Nick'
p73
sS'words'
p74
S'real test'
p75
sa(dp76
S'name'
p77
S'Nick'
p78
sS'words'
p79
S'chat test'
p80
sa(dp81
S'name'
p82
S'Nick'
p83
sS'words'
p84
S'chat testr'
p85
sa(dp86
S'name'
p87
S'Nick'
p88
sS'words'
p89
S'chat testr'
p90
sa(dp91
S'name'
p92
S'Nick'
p93
sS'words'
p94
S'chat testr'
p95
sa(dp96
S'name'
p97
S'Nick'
p98
sS'words'
p99
S'chat testr'
p100
sa.