(lp0
(dp1
S'max'
p2
I25
sS'seq'
p3
I19
sS'name'
p4
S'Nick'
p5
sS'words'
p6
S'ndfaerasdfgewq'
p7
sa(dp8
S'max'
p9
I25
sS'words'
p10
S'ndfaerasdfgewqa'
p11
sS'name'
p12
S'Nick'
p13
sS'seq'
p14
I20
sa(dp15
S'max'
p16
I25
sS'seq'
p17
I21
sS'name'
p18
S'Nick'
p19
sS'words'
p20
S'ndfaerasdfgewqac'
p21
sa(dp22
S'max'
p23
I25
sS'words'
p24
S'ndfaerasdfgewqacd'
p25
sS'name'
p26
S'Nick'
p27
sS'seq'
p28
I22
sa(dp29
S'max'
p30
I25
sS'seq'
p31
I23
sS'name'
p32
S'Nick'
p33
sS'words'
p34
S'ndfaerasdfgewqacde'
p35
sa(dp36
S'max'
p37
I25
sS'words'
p38
S'ndfaerasdfgewqacdew'
p39
sS'name'
p40
S'Nick'
p41
sS'seq'
p42
I24
sa(dp43
S'max'
p44
I25
sS'seq'
p45
I0
sS'name'
p46
S'Nick'
p47
sS'words'
p48
S'ndfaerasdfgewqacdewa'
p49
sa(dp50
S'max'
p51
I25
sS'words'
p52
S'ndfaerasdfgewqacdewag'
p53
sS'name'
p54
S'Nick'
p55
sS'seq'
p56
I1
sa(dp57
S'max'
p58
I25
sS'seq'
p59
I2
sS'name'
p60
S'Nick'
p61
sS'words'
p62
S'ndfaerasdfgewqacdewags'
p63
sa(dp64
S'max'
p65
I25
sS'words'
p66
S'ndfaerasdfgewqacdewagsc'
p67
sS'name'
p68
S'Nick'
p69
sS'seq'
p70
I3
sa(dp71
S'max'
p72
I25
sS'seq'
p73
I4
sS'name'
p74
S'Nick'
p75
sS'words'
p76
S'ndfaerasdfgewqacdewagsca'
p77
sa(dp78
S'max'
p79
I25
sS'words'
p80
S'ndfaerasdfgewqacdewagscae'
p81
sS'name'
p82
S'Nick'
p83
sS'seq'
p84
I5
sa(dp85
S'max'
p86
I25
sS'seq'
p87
I6
sS'name'
p88
S'Nick'
p89
sS'words'
p90
S'ndfaerasdfgewqacdewagscaew'
p91
sa(dp92
S'max'
p93
I25
sS'words'
p94
S'ndfaerasdfgewqacdewagscaewa'
p95
sS'name'
p96
S'Nick'
p97
sS'seq'
p98
I7
sa(dp99
S'max'
p100
I25
sS'seq'
p101
I8
sS'name'
p102
S'Nick'
p103
sS'words'
p104
S'ndfaerasdfgewqacdewagscaewac'
p105
sa(dp106
S'max'
p107
I25
sS'words'
p108
S'ndfaerasdfgewqacdewagscaewaca'
p109
sS'name'
p110
S'Nick'
p111
sS'seq'
p112
I9
sa(dp113
S'max'
p114
I25
sS'seq'
p115
I10
sS'name'
p116
S'Nick'
p117
sS'words'
p118
S'ndfaerasdfgewqacdewagscaewacad'
p119
sa(dp120
S'max'
p121
I25
sS'words'
p122
S'ndfaerasdfgewqacdewagscaewacadf'
p123
sS'name'
p124
S'Nick'
p125
sS'seq'
p126
I11
sa(dp127
S'max'
p128
I25
sS'seq'
p129
I12
sS'name'
p130
S'Nick'
p131
sS'words'
p132
S'ndfaerasdfgewqacdewagscaewacadfs'
p133
sa(dp134
S'max'
p135
I25
sS'seq'
p136
I13
sS'name'
p137
S'aNick'
p138
sS'words'
p139
S'nd'
p140
sa.